; ModuleID = '62/602.c'
source_filename = "62/602.c"
target datalayout = "e-m:e-p270:32:32-p271:32:32-p272:64:64-i64:64-f80:128-n8:16:32:64-S128"
target triple = "x86_64-pc-linux-gnu"

@.str = private unnamed_addr constant [3 x i8] c"%c\00", align 1

; Function Attrs: noinline nounwind uwtable
define dso_local void @main() #0 {
  %1 = alloca i8*, align 8
  %2 = alloca i32, align 4
  %3 = alloca i32, align 4
  %4 = alloca i32, align 4
  store i32 0, i32* %3, align 4
  %5 = call noalias i8* @malloc(i64 100) #4
  store i8* %5, i8** %1, align 8
  %6 = load i8*, i8** %1, align 8
  %7 = call i32 (i8*, ...) bitcast (i32 (...)* @gets to i32 (i8*, ...)*)(i8* %6)
  %8 = load i8*, i8** %1, align 8
  %9 = call i64 @strlen(i8* %8) #5
  %10 = trunc i64 %9 to i32
  store i32 %10, i32* %4, align 4
  store i32 1, i32* %2, align 4
  br label %11

11:                                               ; preds = %50, %0
  %12 = load i32, i32* %2, align 4
  %13 = load i32, i32* %4, align 4
  %14 = icmp slt i32 %12, %13
  br i1 %14, label %15, label %53

15:                                               ; preds = %11
  %16 = load i8*, i8** %1, align 8
  %17 = load i32, i32* %2, align 4
  %18 = sext i32 %17 to i64
  %19 = getelementptr inbounds i8, i8* %16, i64 %18
  %20 = load i8, i8* %19, align 1
  %21 = sext i8 %20 to i32
  %22 = icmp eq i32 %21, 32
  br i1 %22, label %23, label %35

23:                                               ; preds = %15
  %24 = load i8*, i8** %1, align 8
  %25 = load i32, i32* %2, align 4
  %26 = sext i32 %25 to i64
  %27 = getelementptr inbounds i8, i8* %24, i64 %26
  %28 = getelementptr inbounds i8, i8* %27, i64 -1
  %29 = load i8, i8* %28, align 1
  %30 = sext i8 %29 to i32
  %31 = icmp eq i32 %30, 32
  br i1 %31, label %32, label %35

32:                                               ; preds = %23
  %33 = load i32, i32* %3, align 4
  %34 = add nsw i32 %33, 1
  store i32 %34, i32* %3, align 4
  br label %49

35:                                               ; preds = %23, %15
  %36 = load i8*, i8** %1, align 8
  %37 = load i32, i32* %2, align 4
  %38 = sext i32 %37 to i64
  %39 = getelementptr inbounds i8, i8* %36, i64 %38
  %40 = load i8, i8* %39, align 1
  %41 = load i8*, i8** %1, align 8
  %42 = load i32, i32* %2, align 4
  %43 = sext i32 %42 to i64
  %44 = getelementptr inbounds i8, i8* %41, i64 %43
  %45 = load i32, i32* %3, align 4
  %46 = sext i32 %45 to i64
  %47 = sub i64 0, %46
  %48 = getelementptr inbounds i8, i8* %44, i64 %47
  store i8 %40, i8* %48, align 1
  br label %49

49:                                               ; preds = %35, %32
  br label %50

50:                                               ; preds = %49
  %51 = load i32, i32* %2, align 4
  %52 = add nsw i32 %51, 1
  store i32 %52, i32* %2, align 4
  br label %11

53:                                               ; preds = %11
  store i32 0, i32* %2, align 4
  br label %54

54:                                               ; preds = %68, %53
  %55 = load i32, i32* %2, align 4
  %56 = load i32, i32* %4, align 4
  %57 = load i32, i32* %3, align 4
  %58 = sub nsw i32 %56, %57
  %59 = icmp slt i32 %55, %58
  br i1 %59, label %60, label %71

60:                                               ; preds = %54
  %61 = load i8*, i8** %1, align 8
  %62 = load i32, i32* %2, align 4
  %63 = sext i32 %62 to i64
  %64 = getelementptr inbounds i8, i8* %61, i64 %63
  %65 = load i8, i8* %64, align 1
  %66 = sext i8 %65 to i32
  %67 = call i32 (i8*, ...) @printf(i8* getelementptr inbounds ([3 x i8], [3 x i8]* @.str, i64 0, i64 0), i32 %66)
  br label %68

68:                                               ; preds = %60
  %69 = load i32, i32* %2, align 4
  %70 = add nsw i32 %69, 1
  store i32 %70, i32* %2, align 4
  br label %54

71:                                               ; preds = %54
  ret void
}

; Function Attrs: nounwind
declare dso_local noalias i8* @malloc(i64) #1

declare dso_local i32 @gets(...) #2

; Function Attrs: nounwind readonly
declare dso_local i64 @strlen(i8*) #3

declare dso_local i32 @printf(i8*, ...) #2


!llvm.module.flags = !{!0}
!llvm.ident = !{!1}

!0 = !{i32 1, !"wchar_size", i32 4}
!1 = !{!"clang version 10.0.0-4ubuntu1 "}
